target datalayout = "e-m:e-p270:32:32-p271:32:32-p272:64:64-i64:64-i128:128-f80:128-n8:16:32:64-S128"
target triple = "x86_64-pc-linux-gnu"

%"struct.cv::ximgproc::EdgeDrawing::Params" = type { i8, i32, i32, i32, i32, i32, float, i8, i8, i32, double, double, double }

; Function Attrs: mustprogress nounwind uwtable
define void @_ZN2cv8ximgproc11EdgeDrawing6ParamsC2Ev(ptr noundef nonnull align 8 dereferenceable(64) %0) unnamed_addr #8 align 2 {
  %2 = alloca ptr, align 8
  store ptr %0, ptr %2, align 8, !tbaa !91
  %3 = load ptr, ptr %2, align 8
  %4 = getelementptr inbounds nuw %"struct.cv::ximgproc::EdgeDrawing::Params", ptr %3, i32 0, i32 0
  store i8 0, ptr %4, align 8, !tbaa !93
  %5 = getelementptr inbounds nuw %"struct.cv::ximgproc::EdgeDrawing::Params", ptr %3, i32 0, i32 1
  store i32 0, ptr %5, align 4, !tbaa !96
  %6 = getelementptr inbounds nuw %"struct.cv::ximgproc::EdgeDrawing::Params", ptr %3, i32 0, i32 2
  store i32 20, ptr %6, align 8, !tbaa !97
  %7 = getelementptr inbounds nuw %"struct.cv::ximgproc::EdgeDrawing::Params", ptr %3, i32 0, i32 3
  store i32 0, ptr %7, align 4, !tbaa !98
  %8 = getelementptr inbounds nuw %"struct.cv::ximgproc::EdgeDrawing::Params", ptr %3, i32 0, i32 4
  store i32 1, ptr %8, align 8, !tbaa !99
  %9 = getelementptr inbounds nuw %"struct.cv::ximgproc::EdgeDrawing::Params", ptr %3, i32 0, i32 5
  store i32 10, ptr %9, align 4, !tbaa !100
  %10 = getelementptr inbounds nuw %"struct.cv::ximgproc::EdgeDrawing::Params", ptr %3, i32 0, i32 6
  store float 1.000000e+00, ptr %10, align 8, !tbaa !101
  %11 = getelementptr inbounds nuw %"struct.cv::ximgproc::EdgeDrawing::Params", ptr %3, i32 0, i32 7
  store i8 1, ptr %11, align 4, !tbaa !102
  %12 = getelementptr inbounds nuw %"struct.cv::ximgproc::EdgeDrawing::Params", ptr %3, i32 0, i32 8
  store i8 1, ptr %12, align 1, !tbaa !103
  %13 = getelementptr inbounds nuw %"struct.cv::ximgproc::EdgeDrawing::Params", ptr %3, i32 0, i32 9
  store i32 -1, ptr %13, align 8, !tbaa !104
  %14 = getelementptr inbounds nuw %"struct.cv::ximgproc::EdgeDrawing::Params", ptr %3, i32 0, i32 10
  store double 6.000000e+00, ptr %14, align 8, !tbaa !105
  %15 = getelementptr inbounds nuw %"struct.cv::ximgproc::EdgeDrawing::Params", ptr %3, i32 0, i32 11
  store double 1.000000e+00, ptr %15, align 8, !tbaa !106
  %16 = getelementptr inbounds nuw %"struct.cv::ximgproc::EdgeDrawing::Params", ptr %3, i32 0, i32 12
  store double 1.300000e+00, ptr %16, align 8, !tbaa !107
  ret void
}