; Function Attrs: mustprogress nofree norecurse nosync nounwind willreturn memory(argmem: write) uwtable
define void @_ZN2cv8ximgproc11EdgeDrawing6ParamsC2Ev(ptr noundef nonnull writeonly align 8 captures(none) dereferenceable(64) initializes((0, 1), (4, 30), (32, 36), (40, 64)) %0) unnamed_addr #15 align 2 {
  store i8 0, ptr %0, align 8, !tbaa !86
  %2 = getelementptr inbounds nuw i8, ptr %0, i64 4
  store i32 0, ptr %2, align 4, !tbaa !89
  %3 = getelementptr inbounds nuw i8, ptr %0, i64 8
  store i32 20, ptr %3, align 8, !tbaa !90
  %4 = getelementptr inbounds nuw i8, ptr %0, i64 12
  store i32 0, ptr %4, align 4, !tbaa !91
  %5 = getelementptr inbounds nuw i8, ptr %0, i64 16
  store i32 1, ptr %5, align 8, !tbaa !92
  %6 = getelementptr inbounds nuw i8, ptr %0, i64 20
  store i32 10, ptr %6, align 4, !tbaa !93
  %7 = getelementptr inbounds nuw i8, ptr %0, i64 24
  store float 1.000000e+00, ptr %7, align 8, !tbaa !94
  %8 = getelementptr inbounds nuw i8, ptr %0, i64 28
  store i8 1, ptr %8, align 4, !tbaa !95
  %9 = getelementptr inbounds nuw i8, ptr %0, i64 29
  store i8 1, ptr %9, align 1, !tbaa !96
  %10 = getelementptr inbounds nuw i8, ptr %0, i64 32
  store i32 -1, ptr %10, align 8, !tbaa !97
  %11 = getelementptr inbounds nuw i8, ptr %0, i64 40
  store double 6.000000e+00, ptr %11, align 8, !tbaa !98
  %12 = getelementptr inbounds nuw i8, ptr %0, i64 48
  store double 1.000000e+00, ptr %12, align 8, !tbaa !99
  %13 = getelementptr inbounds nuw i8, ptr %0, i64 56
  store double 1.300000e+00, ptr %13, align 8, !tbaa !100
  ret void
}